; Function Attrs: nounwind uwtable
define hidden void @zim_Generator_rewind(ptr noundef readonly captures(none) %0, ptr readnone captures(none) %1) #0 {
  %3 = getelementptr inbounds nuw i8, ptr %0, i64 44
  %4 = load i32, ptr %3, align 4, !tbaa !24
  %.not = icmp eq i32 %4, 0
  br i1 %.not, label %6, label %5, !prof !58

5:                                                ; preds = %2
  tail call void @zend_wrong_parameters_none_error() #11
  br label %zend_generator_rewind.exit

6:                                                ; preds = %2
  %7 = getelementptr inbounds nuw i8, ptr %0, i64 32
  %8 = load ptr, ptr %7, align 8, !tbaa !24
  %9 = getelementptr inbounds nuw i8, ptr %8, i64 80
  %10 = load i8, ptr %9, align 8, !tbaa !24
  %11 = icmp eq i8 %10, 0
  br i1 %11, label %12, label %zend_generator_ensure_initialized.exit.i, !prof !26

12:                                               ; preds = %6
  %13 = getelementptr inbounds nuw i8, ptr %8, i64 56
  %14 = load ptr, ptr %13, align 8, !tbaa !56
  %.not.i.i = icmp eq ptr %14, null
  br i1 %.not.i.i, label %zend_generator_ensure_initialized.exit.i, label %15, !prof !26

15:                                               ; preds = %12
  %16 = getelementptr inbounds nuw i8, ptr %8, i64 152
  %17 = load ptr, ptr %16, align 8, !tbaa !94
  %18 = icmp eq ptr %17, null
  br i1 %18, label %19, label %zend_generator_ensure_initialized.exit.i, !prof !58

19:                                               ; preds = %15
  tail call void @zend_generator_resume(ptr noundef nonnull %8)
  %20 = getelementptr inbounds nuw i8, ptr %8, i64 272
  %21 = load i8, ptr %20, align 8, !tbaa !99
  %22 = or i8 %21, 4
  store i8 %22, ptr %20, align 8, !tbaa !99
  br label %zend_generator_ensure_initialized.exit.i

zend_generator_ensure_initialized.exit.i:         ; preds = %19, %15, %12, %6
  %23 = getelementptr inbounds nuw i8, ptr %8, i64 272
  %24 = load i8, ptr %23, align 8, !tbaa !99
  %25 = and i8 %24, 4
  %.not.i = icmp eq i8 %25, 0
  br i1 %.not.i, label %26, label %zend_generator_rewind.exit

26:                                               ; preds = %zend_generator_ensure_initialized.exit.i
  %27 = tail call ptr @zend_throw_exception(ptr noundef null, ptr noundef nonnull @.str.7, i64 noundef 0) #11
  br label %zend_generator_rewind.exit

zend_generator_rewind.exit:                       ; preds = %26, %zend_generator_ensure_initialized.exit.i, %5
  ret void
}